; Function Attrs: nofree norecurse nosync nounwind memory(readwrite, inaccessiblemem: none) uwtable
define internal void @coverright8_transition(ptr noundef readonly captures(none) %0, ptr noundef readonly captures(none) %1, ptr noundef readonly captures(none) %2, ptr noundef readonly captures(none) %3, float noundef %4, i32 noundef %5, i32 noundef %6, i32 %7) #6 {
  %9 = getelementptr inbounds nuw i8, ptr %0, i64 72
  %10 = load ptr, ptr %9, align 8, !tbaa !4
  %11 = sub i32 %6, %5
  %12 = getelementptr inbounds nuw i8, ptr %3, i64 104
  %13 = load i32, ptr %12, align 8, !tbaa !85
  %14 = sitofp i32 %13 to float
  %15 = fmul nsz float %4, %14
  %16 = fptosi float %15 to i32
  %17 = getelementptr inbounds nuw i8, ptr %10, i64 40
  %18 = load i32, ptr %17, align 8, !tbaa !77
  %19 = icmp sgt i32 %18, 0
  br i1 %19, label %.lr.ph, label %._crit_edge

.lr.ph:                                           ; preds = %8
  %20 = getelementptr inbounds nuw i8, ptr %1, i64 64
  %21 = getelementptr inbounds nuw i8, ptr %2, i64 64
  %22 = getelementptr inbounds nuw i8, ptr %3, i64 64
  %23 = icmp sgt i32 %11, 0
  %24 = icmp sgt i32 %13, 0
  %or.cond = select i1 %23, i1 %24, i1 false
  br i1 %or.cond, label %.preheader.lr.ph.us.us.preheader, label %._crit_edge

.preheader.lr.ph.us.us.preheader:                 ; preds = %.lr.ph
  %25 = sext i32 %16 to i64
  %26 = zext nneg i32 %13 to i64
  %wide.trip.count = zext nneg i32 %13 to i64
  br label %.preheader.lr.ph.us.us

.preheader.lr.ph.us.us:                           ; preds = %.preheader.lr.ph.us.us.preheader, %._crit_edge66.split.us.us.us
  %indvars.iv79 = phi i64 [ 0, %.preheader.lr.ph.us.us.preheader ], [ %indvars.iv.next80, %._crit_edge66.split.us.us.us ]
  %27 = getelementptr inbounds nuw [8 x ptr], ptr %1, i64 0, i64 %indvars.iv79
  %28 = load ptr, ptr %27, align 8, !tbaa !89
  %29 = getelementptr inbounds nuw [8 x i32], ptr %20, i64 0, i64 %indvars.iv79
  %30 = load i32, ptr %29, align 4, !tbaa !31
  %31 = mul nsw i32 %30, %5
  %32 = sext i32 %31 to i64
  %33 = getelementptr inbounds i8, ptr %28, i64 %32
  %34 = getelementptr inbounds nuw [8 x ptr], ptr %2, i64 0, i64 %indvars.iv79
  %35 = load ptr, ptr %34, align 8, !tbaa !89
  %36 = getelementptr inbounds nuw [8 x i32], ptr %21, i64 0, i64 %indvars.iv79
  %37 = load i32, ptr %36, align 4, !tbaa !31
  %38 = mul nsw i32 %37, %5
  %39 = sext i32 %38 to i64
  %40 = getelementptr inbounds i8, ptr %35, i64 %39
  %41 = getelementptr inbounds nuw [8 x ptr], ptr %3, i64 0, i64 %indvars.iv79
  %42 = load ptr, ptr %41, align 8, !tbaa !89
  %43 = getelementptr inbounds nuw [8 x i32], ptr %22, i64 0, i64 %indvars.iv79
  %44 = load i32, ptr %43, align 4, !tbaa !31
  %45 = mul nsw i32 %44, %5
  %46 = sext i32 %45 to i64
  %47 = getelementptr inbounds i8, ptr %42, i64 %46
  br label %.preheader.us.us.us

.preheader.us.us.us:                              ; preds = %._crit_edge.us.us.us, %.preheader.lr.ph.us.us
  %.05465.us.us.us = phi i32 [ 0, %.preheader.lr.ph.us.us ], [ %69, %._crit_edge.us.us.us ]
  %.05564.us.us.us = phi ptr [ %47, %.preheader.lr.ph.us.us ], [ %62, %._crit_edge.us.us.us ]
  %.05663.us.us.us = phi ptr [ %40, %.preheader.lr.ph.us.us ], [ %68, %._crit_edge.us.us.us ]
  %.05762.us.us.us = phi ptr [ %33, %.preheader.lr.ph.us.us ], [ %65, %._crit_edge.us.us.us ]
  br label %48

48:                                               ; preds = %48, %.preheader.us.us.us
  %indvars.iv = phi i64 [ %indvars.iv.next, %48 ], [ 0, %.preheader.us.us.us ]
  %49 = add nsw i64 %indvars.iv, %25
  %50 = trunc nsw i64 %49 to i32
  %51 = srem i32 %50, %13
  %isneg.us.us.us = icmp slt i64 %49, 0
  %52 = select i1 %isneg.us.us.us, i32 %13, i32 0
  %53 = add nsw i32 %51, %52
  %54 = icmp sgt i64 %49, -1
  %55 = icmp slt i64 %49, %26
  %or.cond.us.us.us = select i1 %54, i1 %55, i1 false
  %56 = sext i32 %53 to i64
  %57 = getelementptr inbounds i8, ptr %.05663.us.us.us, i64 %56
  %58 = getelementptr inbounds nuw i8, ptr %.05762.us.us.us, i64 %indvars.iv
  %.in.in.us.us.us = select i1 %or.cond.us.us.us, ptr %57, ptr %58
  %.in60.us.us.us = load i8, ptr %.in.in.us.us.us, align 1, !tbaa !90
  %59 = getelementptr inbounds nuw i8, ptr %.05564.us.us.us, i64 %indvars.iv
  store i8 %.in60.us.us.us, ptr %59, align 1, !tbaa !90
  %indvars.iv.next = add nuw nsw i64 %indvars.iv, 1
  %exitcond.not = icmp eq i64 %indvars.iv.next, %wide.trip.count
  br i1 %exitcond.not, label %._crit_edge.us.us.us, label %48, !llvm.loop !412

._crit_edge.us.us.us:                             ; preds = %48
  %60 = load i32, ptr %43, align 4, !tbaa !31
  %61 = sext i32 %60 to i64
  %62 = getelementptr inbounds i8, ptr %.05564.us.us.us, i64 %61
  %63 = load i32, ptr %29, align 4, !tbaa !31
  %64 = sext i32 %63 to i64
  %65 = getelementptr inbounds i8, ptr %.05762.us.us.us, i64 %64
  %66 = load i32, ptr %36, align 4, !tbaa !31
  %67 = sext i32 %66 to i64
  %68 = getelementptr inbounds i8, ptr %.05663.us.us.us, i64 %67
  %69 = add nuw nsw i32 %.05465.us.us.us, 1
  %exitcond78.not = icmp eq i32 %69, %11
  br i1 %exitcond78.not, label %._crit_edge66.split.us.us.us, label %.preheader.us.us.us, !llvm.loop !413

._crit_edge66.split.us.us.us:                     ; preds = %._crit_edge.us.us.us
  %indvars.iv.next80 = add nuw nsw i64 %indvars.iv79, 1
  %70 = load i32, ptr %17, align 8, !tbaa !77
  %71 = sext i32 %70 to i64
  %72 = icmp slt i64 %indvars.iv.next80, %71
  br i1 %72, label %.preheader.lr.ph.us.us, label %._crit_edge, !llvm.loop !414

._crit_edge:                                      ; preds = %._crit_edge66.split.us.us.us, %.lr.ph, %8
  ret void
}